; Function Attrs: mustprogress nounwind uwtable
define internal fastcc void @_ZN12_GLOBAL__N_128CloneTypeIIStmtDataCollectorIN4llvm3MD5EE18VisitAddrLabelExprIvEEvPKN5clang13AddrLabelExprE(ptr noundef nonnull readonly align 8 captures(none) dereferenceable(16) %0, ptr noundef %1) unnamed_addr #1 align 2 {
  %3 = alloca %"class.std::__cxx11::basic_string", align 8
  %4 = alloca %"class.clang::QualType", align 8
  %5 = getelementptr inbounds nuw i8, ptr %1, i64 24
  %6 = load ptr, ptr %5, align 8
  %7 = getelementptr inbounds nuw i8, ptr %6, i64 40
  %8 = load i64, ptr %7, align 8
  %9 = and i64 %8, 7
  %10 = icmp ne i64 %9, 0
  %11 = and i64 %8, -8
  %.not2.i = icmp eq i64 %11, 0
  %.not.i = or i1 %10, %.not2.i
  br i1 %.not.i, label %_ZNK5clang9NamedDecl7getNameEv.exit, label %12

12:                                               ; preds = %2
  %13 = inttoptr i64 %11 to ptr
  %14 = getelementptr inbounds nuw i8, ptr %13, i64 16
  %15 = load ptr, ptr %14, align 8
  %16 = getelementptr inbounds nuw i8, ptr %15, i64 16
  %17 = load i64, ptr %15, align 8
  %18 = and i64 %17, 4294967295
  br label %_ZNK5clang9NamedDecl7getNameEv.exit

_ZNK5clang9NamedDecl7getNameEv.exit:              ; preds = %2, %12
  %.sroa.3.0.i = phi i64 [ %18, %12 ], [ 0, %2 ]
  %.sroa.0.0.i = phi ptr [ %16, %12 ], [ @.str, %2 ]
  %19 = getelementptr inbounds nuw i8, ptr %0, i64 8
  %.val = load ptr, ptr %19, align 8
  tail call void @_ZN4llvm3MD56updateENS_9StringRefE(ptr noundef nonnull align 4 dereferenceable(152) %.val, ptr nonnull %.sroa.0.0.i, i64 %.sroa.3.0.i) #21
  call void @llvm.lifetime.start.p0(i64 8, ptr nonnull %4)
  %20 = getelementptr inbounds nuw i8, ptr %1, i64 8
  %.sroa.0.0.copyload.i.i.i = load i64, ptr %20, align 8
  store i64 %.sroa.0.0.copyload.i.i.i, ptr %4, align 8
  %.val.i.i = load ptr, ptr %19, align 8
  call void @llvm.lifetime.start.p0(i64 32, ptr nonnull %3)
  call void @_ZNK5clang8QualType11getAsStringB5cxx11Ev(ptr dead_on_unwind nonnull writable sret(%"class.std::__cxx11::basic_string") align 8 %3, ptr noundef nonnull align 8 dereferenceable(8) %4) #21
  %21 = call noundef ptr @_ZNKSt7__cxx1112basic_stringIcSt11char_traitsIcESaIcEE4dataEv(ptr noundef nonnull align 8 dereferenceable(32) %3) #21
  %22 = call noundef i64 @_ZNKSt7__cxx1112basic_stringIcSt11char_traitsIcESaIcEE6lengthEv(ptr noundef nonnull align 8 dereferenceable(32) %3) #21
  call void @_ZN4llvm3MD56updateENS_9StringRefE(ptr noundef nonnull align 4 dereferenceable(152) %.val.i.i, ptr %21, i64 %22) #21
  call void @_ZNSt7__cxx1112basic_stringIcSt11char_traitsIcESaIcEED1Ev(ptr noundef nonnull align 8 dereferenceable(32) %3) #21
  call void @llvm.lifetime.end.p0(i64 32, ptr nonnull %3)
  call fastcc void @_ZN12_GLOBAL__N_128CloneTypeIIStmtDataCollectorIN4llvm3MD5EE9VisitStmtIvEEvPKN5clang4StmtE(ptr noundef nonnull readonly align 8 dereferenceable(16) %0, ptr noundef nonnull %1)
  call void @llvm.lifetime.end.p0(i64 8, ptr nonnull %4)
  ret void
}